target datalayout = "e-m:e-p270:32:32-p271:32:32-p272:64:64-i64:64-f80:128-n8:16:32:64-S128"
target triple = "x86_64-pc-linux-gnu"

@.str = private unnamed_addr constant [3 x i8] c"%d\00", align 1
@.str.1 = private unnamed_addr constant [3 x i8] c"%s\00", align 1
@.str.2 = private unnamed_addr constant [4 x i8] c"%d\0A\00", align 1
@.str.3 = private unnamed_addr constant [4 x i8] c"%s\0A\00", align 1
@.str.4 = private unnamed_addr constant [4 x i8] c"NO\0A\00", align 1

; Function Attrs: noinline nounwind uwtable
define dso_local i32 @main() #0 {
  %1 = alloca i32, align 4
  %2 = alloca [502 x i8], align 16
  %3 = alloca [502 x [6 x i8]], align 16
  %4 = alloca [502 x i32], align 16
  %5 = alloca i32, align 4
  %6 = alloca i32, align 4
  %7 = alloca i32, align 4
  %8 = alloca i32, align 4
  %9 = alloca i32, align 4
  %10 = alloca i32, align 4
  %11 = alloca i32, align 4
  store i32 0, i32* %1, align 4
  %12 = call i32 (i8*, ...) @__isoc99_scanf(i8* getelementptr inbounds ([3 x i8], [3 x i8]* @.str, i64 0, i64 0), i32* %7)
  %13 = call i32 (i8*, ...) @__isoc99_scanf(i8* getelementptr inbounds ([3 x i8], [3 x i8]* @.str.1, i64 0, i64 0), [502 x i8]* %2)
  %14 = getelementptr inbounds [502 x i8], [502 x i8]* %2, i64 0, i64 0
  %15 = call i64 @strlen(i8* %14) #3
  %16 = trunc i64 %15 to i32
  store i32 %16, i32* %5, align 4
  store i32 0, i32* %6, align 4
  br label %17

17:                                               ; preds = %46, %0
  %18 = load i32, i32* %6, align 4
  %19 = load i32, i32* %5, align 4
  %20 = load i32, i32* %7, align 4
  %21 = sub nsw i32 %19, %20
  %22 = add nsw i32 %21, 1
  %23 = icmp slt i32 %18, %22
  br i1 %23, label %24, label %49

24:                                               ; preds = %17
  store i32 0, i32* %8, align 4
  br label %25

25:                                               ; preds = %42, %24
  %26 = load i32, i32* %8, align 4
  %27 = load i32, i32* %7, align 4
  %28 = icmp slt i32 %26, %27
  br i1 %28, label %29, label %45

29:                                               ; preds = %25
  %30 = load i32, i32* %6, align 4
  %31 = load i32, i32* %8, align 4
  %32 = add nsw i32 %30, %31
  %33 = sext i32 %32 to i64
  %34 = getelementptr inbounds [502 x i8], [502 x i8]* %2, i64 0, i64 %33
  %35 = load i8, i8* %34, align 1
  %36 = load i32, i32* %6, align 4
  %37 = sext i32 %36 to i64
  %38 = getelementptr inbounds [502 x [6 x i8]], [502 x [6 x i8]]* %3, i64 0, i64 %37
  %39 = load i32, i32* %8, align 4
  %40 = sext i32 %39 to i64
  %41 = getelementptr inbounds [6 x i8], [6 x i8]* %38, i64 0, i64 %40
  store i8 %35, i8* %41, align 1
  br label %42

42:                                               ; preds = %29
  %43 = load i32, i32* %8, align 4
  %44 = add nsw i32 %43, 1
  store i32 %44, i32* %8, align 4
  br label %25

45:                                               ; preds = %25
  br label %46

46:                                               ; preds = %45
  %47 = load i32, i32* %6, align 4
  %48 = add nsw i32 %47, 1
  store i32 %48, i32* %6, align 4
  br label %17

49:                                               ; preds = %17
  store i32 0, i32* %6, align 4
  br label %50

50:                                               ; preds = %61, %49
  %51 = load i32, i32* %6, align 4
  %52 = load i32, i32* %5, align 4
  %53 = load i32, i32* %7, align 4
  %54 = sub nsw i32 %52, %53
  %55 = add nsw i32 %54, 1
  %56 = icmp slt i32 %51, %55
  br i1 %56, label %57, label %64

57:                                               ; preds = %50
  %58 = load i32, i32* %6, align 4
  %59 = sext i32 %58 to i64
  %60 = getelementptr inbounds [502 x i32], [502 x i32]* %4, i64 0, i64 %59
  store i32 0, i32* %60, align 4
  br label %61

61:                                               ; preds = %57
  %62 = load i32, i32* %6, align 4
  %63 = add nsw i32 %62, 1
  store i32 %63, i32* %6, align 4
  br label %50

64:                                               ; preds = %50
  store i32 0, i32* %6, align 4
  br label %65

65:                                               ; preds = %102, %64
  %66 = load i32, i32* %6, align 4
  %67 = load i32, i32* %5, align 4
  %68 = load i32, i32* %7, align 4
  %69 = sub nsw i32 %67, %68
  %70 = add nsw i32 %69, 1
  %71 = icmp slt i32 %66, %70
  br i1 %71, label %72, label %105

72:                                               ; preds = %65
  store i32 0, i32* %8, align 4
  br label %73

73:                                               ; preds = %98, %72
  %74 = load i32, i32* %8, align 4
  %75 = load i32, i32* %5, align 4
  %76 = load i32, i32* %7, align 4
  %77 = sub nsw i32 %75, %76
  %78 = add nsw i32 %77, 1
  %79 = icmp slt i32 %74, %78
  br i1 %79, label %80, label %101

80:                                               ; preds = %73
  %81 = load i32, i32* %6, align 4
  %82 = sext i32 %81 to i64
  %83 = getelementptr inbounds [502 x [6 x i8]], [502 x [6 x i8]]* %3, i64 0, i64 %82
  %84 = getelementptr inbounds [6 x i8], [6 x i8]* %83, i64 0, i64 0
  %85 = load i32, i32* %8, align 4
  %86 = sext i32 %85 to i64
  %87 = getelementptr inbounds [502 x [6 x i8]], [502 x [6 x i8]]* %3, i64 0, i64 %86
  %88 = getelementptr inbounds [6 x i8], [6 x i8]* %87, i64 0, i64 0
  %89 = call i32 @strcmp(i8* %84, i8* %88) #3
  %90 = icmp eq i32 %89, 0
  br i1 %90, label %91, label %97

91:                                               ; preds = %80
  %92 = load i32, i32* %6, align 4
  %93 = sext i32 %92 to i64
  %94 = getelementptr inbounds [502 x i32], [502 x i32]* %4, i64 0, i64 %93
  %95 = load i32, i32* %94, align 4
  %96 = add nsw i32 %95, 1
  store i32 %96, i32* %94, align 4
  br label %97

97:                                               ; preds = %91, %80
  br label %98

98:                                               ; preds = %97
  %99 = load i32, i32* %8, align 4
  %100 = add nsw i32 %99, 1
  store i32 %100, i32* %8, align 4
  br label %73

101:                                              ; preds = %73
  br label %102

102:                                              ; preds = %101
  %103 = load i32, i32* %6, align 4
  %104 = add nsw i32 %103, 1
  store i32 %104, i32* %6, align 4
  br label %65

105:                                              ; preds = %65
  %106 = getelementptr inbounds [502 x i32], [502 x i32]* %4, i64 0, i64 0
  %107 = load i32, i32* %106, align 16
  store i32 %107, i32* %9, align 4
  store i32 0, i32* %10, align 4
  store i32 0, i32* %6, align 4
  br label %108

108:                                              ; preds = %129, %105
  %109 = load i32, i32* %6, align 4
  %110 = load i32, i32* %5, align 4
  %111 = load i32, i32* %7, align 4
  %112 = sub nsw i32 %110, %111
  %113 = add nsw i32 %112, 1
  %114 = icmp slt i32 %109, %113
  br i1 %114, label %115, label %132

115:                                              ; preds = %108
  %116 = load i32, i32* %6, align 4
  %117 = sext i32 %116 to i64
  %118 = getelementptr inbounds [502 x i32], [502 x i32]* %4, i64 0, i64 %117
  %119 = load i32, i32* %118, align 4
  %120 = load i32, i32* %9, align 4
  %121 = icmp sgt i32 %119, %120
  br i1 %121, label %122, label %128

122:                                              ; preds = %115
  %123 = load i32, i32* %6, align 4
  %124 = sext i32 %123 to i64
  %125 = getelementptr inbounds [502 x i32], [502 x i32]* %4, i64 0, i64 %124
  %126 = load i32, i32* %125, align 4
  store i32 %126, i32* %9, align 4
  %127 = load i32, i32* %6, align 4
  store i32 %127, i32* %10, align 4
  br label %128

128:                                              ; preds = %122, %115
  br label %129

129:                                              ; preds = %128
  %130 = load i32, i32* %6, align 4
  %131 = add nsw i32 %130, 1
  store i32 %131, i32* %6, align 4
  br label %108

132:                                              ; preds = %108
  %133 = load i32, i32* %9, align 4
  %134 = icmp sgt i32 %133, 1
  br i1 %134, label %135, label %199

135:                                              ; preds = %132
  %136 = load i32, i32* %9, align 4
  %137 = call i32 (i8*, ...) @printf(i8* getelementptr inbounds ([4 x i8], [4 x i8]* @.str.2, i64 0, i64 0), i32 %136)
  store i32 1, i32* %11, align 4
  %138 = getelementptr inbounds [502 x i32], [502 x i32]* %4, i64 0, i64 0
  %139 = load i32, i32* %138, align 16
  %140 = load i32, i32* %9, align 4
  %141 = icmp eq i32 %139, %140
  br i1 %141, label %142, label %148

142:                                              ; preds = %135
  %143 = load i32, i32* %11, align 4
  %144 = icmp eq i32 %143, 1
  br i1 %144, label %145, label %148

145:                                              ; preds = %142
  %146 = getelementptr inbounds [502 x [6 x i8]], [502 x [6 x i8]]* %3, i64 0, i64 0
  %147 = call i32 (i8*, ...) @printf(i8* getelementptr inbounds ([4 x i8], [4 x i8]* @.str.3, i64 0, i64 0), [6 x i8]* %146)
  br label %148

148:                                              ; preds = %145, %142, %135
  store i32 1, i32* %6, align 4
  br label %149

149:                                              ; preds = %195, %148
  %150 = load i32, i32* %6, align 4
  %151 = load i32, i32* %5, align 4
  %152 = load i32, i32* %7, align 4
  %153 = sub nsw i32 %151, %152
  %154 = add nsw i32 %153, 1
  %155 = icmp slt i32 %150, %154
  br i1 %155, label %156, label %198

156:                                              ; preds = %149
  store i32 0, i32* %11, align 4
  %157 = load i32, i32* %6, align 4
  %158 = sub nsw i32 %157, 1
  store i32 %158, i32* %8, align 4
  br label %159

159:                                              ; preds = %176, %156
  %160 = load i32, i32* %8, align 4
  %161 = icmp sge i32 %160, 0
  br i1 %161, label %162, label %179

162:                                              ; preds = %159
  %163 = load i32, i32* %6, align 4
  %164 = sext i32 %163 to i64
  %165 = getelementptr inbounds [502 x [6 x i8]], [502 x [6 x i8]]* %3, i64 0, i64 %164
  %166 = getelementptr inbounds [6 x i8], [6 x i8]* %165, i64 0, i64 0
  %167 = load i32, i32* %8, align 4
  %168 = sext i32 %167 to i64
  %169 = getelementptr inbounds [502 x [6 x i8]], [502 x [6 x i8]]* %3, i64 0, i64 %168
  %170 = getelementptr inbounds [6 x i8], [6 x i8]* %169, i64 0, i64 0
  %171 = call i32 @strcmp(i8* %166, i8* %170) #3
  %172 = icmp ne i32 %171, 0
  br i1 %172, label %173, label %174

173:                                              ; preds = %162
  store i32 1, i32* %11, align 4
  br label %175

174:                                              ; preds = %162
  store i32 0, i32* %11, align 4
  br label %179

175:                                              ; preds = %173
  br label %176

176:                                              ; preds = %175
  %177 = load i32, i32* %8, align 4
  %178 = add nsw i32 %177, -1
  store i32 %178, i32* %8, align 4
  br label %159

179:                                              ; preds = %174, %159
  %180 = load i32, i32* %6, align 4
  %181 = sext i32 %180 to i64
  %182 = getelementptr inbounds [502 x i32], [502 x i32]* %4, i64 0, i64 %181
  %183 = load i32, i32* %182, align 4
  %184 = load i32, i32* %9, align 4
  %185 = icmp eq i32 %183, %184
  br i1 %185, label %186, label %194

186:                                              ; preds = %179
  %187 = load i32, i32* %11, align 4
  %188 = icmp eq i32 %187, 1
  br i1 %188, label %189, label %194

189:                                              ; preds = %186
  %190 = load i32, i32* %6, align 4
  %191 = sext i32 %190 to i64
  %192 = getelementptr inbounds [502 x [6 x i8]], [502 x [6 x i8]]* %3, i64 0, i64 %191
  %193 = call i32 (i8*, ...) @printf(i8* getelementptr inbounds ([4 x i8], [4 x i8]* @.str.3, i64 0, i64 0), [6 x i8]* %192)
  br label %194

194:                                              ; preds = %189, %186, %179
  br label %195

195:                                              ; preds = %194
  %196 = load i32, i32* %6, align 4
  %197 = add nsw i32 %196, 1
  store i32 %197, i32* %6, align 4
  br label %149

198:                                              ; preds = %149
  br label %199

199:                                              ; preds = %198, %132
  %200 = load i32, i32* %9, align 4
  %201 = icmp eq i32 %200, 1
  br i1 %201, label %202, label %204

202:                                              ; preds = %199
  %203 = call i32 (i8*, ...) @printf(i8* getelementptr inbounds ([4 x i8], [4 x i8]* @.str.4, i64 0, i64 0))
  br label %204

204:                                              ; preds = %202, %199
  %205 = load i32, i32* %1, align 4
  ret i32 %205
}